S'1.4.0'
p0
.VCOM3
p0
.V9600
p0
.V8
p0
.V1
p0
.VNone
p0
.I00
.I00
.I00
.I0
.(i__main__
QuickSendData
p0
(dp1
b.(lp0
(i__main__
SendPacketData
p1
(dp2
ba(i__main__
SendPacketData
p3
(dp4
ba(i__main__
SendPacketData
p5
(dp6
ba(i__main__
SendPacketData
p7
(dp8
ba(i__main__
SendPacketData
p9
(dp10
ba(i__main__
SendPacketData
p11
(dp12
ba(i__main__
SendPacketData
p13
(dp14
ba(i__main__
SendPacketData
p15
(dp16
ba.V1
p0
.I00
.V100
p0
.S'ASCII'
p0
.I01
.I00
.I00
.